; Function Attrs: mustprogress nofree norecurse nosync nounwind willreturn memory(read, inaccessiblemem: none) uwtable
define noundef zeroext i8 @_ZN5ZXing14ToCharacterSetENS_3ECIE(i32 noundef %0) local_unnamed_addr #6 {
  %2 = load ptr, ptr getelementptr inbounds nuw (i8, ptr @_ZN5ZXingL14ECI_TO_CHARSETE, i64 16), align 8, !tbaa !12
  %.not10.i.i.i = icmp eq ptr %2, null
  br i1 %.not10.i.i.i, label %select.unfold, label %.lr.ph.i.i.i

.lr.ph.i.i.i:                                     ; preds = %1, %.lr.ph.i.i.i
  %.012.i.i.i = phi ptr [ %.1.i.i.i, %.lr.ph.i.i.i ], [ %2, %1 ]
  %.0811.i.i.i = phi ptr [ %.19.i.i.i, %.lr.ph.i.i.i ], [ getelementptr inbounds nuw (i8, ptr @_ZN5ZXingL14ECI_TO_CHARSETE, i64 8), %1 ]
  %3 = getelementptr inbounds nuw i8, ptr %.012.i.i.i, i64 32
  %4 = load i32, ptr %3, align 4, !tbaa !17
  %5 = icmp slt i32 %4, %0
  %.19.i.i.i = select i1 %5, ptr %.0811.i.i.i, ptr %.012.i.i.i
  %.1.in.v.i.i.i = select i1 %5, i64 24, i64 16
  %.1.in.i.i.i = getelementptr inbounds nuw i8, ptr %.012.i.i.i, i64 %.1.in.v.i.i.i
  %.1.i.i.i = load ptr, ptr %.1.in.i.i.i, align 8, !tbaa !16
  %.not.i.i.i = icmp eq ptr %.1.i.i.i, null
  br i1 %.not.i.i.i, label %_ZNKSt8_Rb_treeIN5ZXing3ECIESt4pairIKS1_NS0_12CharacterSetEESt10_Select1stIS5_ESt4lessIS1_ESaIS5_EE14_M_lower_boundEPKSt13_Rb_tree_nodeIS5_EPKSt18_Rb_tree_node_baseRS3_.exit.i.i, label %.lr.ph.i.i.i, !llvm.loop !37

_ZNKSt8_Rb_treeIN5ZXing3ECIESt4pairIKS1_NS0_12CharacterSetEESt10_Select1stIS5_ESt4lessIS1_ESaIS5_EE14_M_lower_boundEPKSt13_Rb_tree_nodeIS5_EPKSt18_Rb_tree_node_baseRS3_.exit.i.i: ; preds = %.lr.ph.i.i.i
  %6 = icmp eq ptr %.19.i.i.i, getelementptr inbounds nuw (i8, ptr @_ZN5ZXingL14ECI_TO_CHARSETE, i64 8)
  br i1 %6, label %select.unfold, label %7

7:                                                ; preds = %_ZNKSt8_Rb_treeIN5ZXing3ECIESt4pairIKS1_NS0_12CharacterSetEESt10_Select1stIS5_ESt4lessIS1_ESaIS5_EE14_M_lower_boundEPKSt13_Rb_tree_nodeIS5_EPKSt18_Rb_tree_node_baseRS3_.exit.i.i
  %8 = getelementptr inbounds nuw i8, ptr %.19.i.i.i, i64 32
  %9 = load i32, ptr %8, align 4, !tbaa !17
  %10 = icmp slt i32 %0, %9
  br i1 %10, label %select.unfold, label %11

11:                                               ; preds = %7
  %12 = getelementptr inbounds nuw i8, ptr %.19.i.i.i, i64 36
  %13 = load i8, ptr %12, align 4, !tbaa !38
  br label %select.unfold

select.unfold:                                    ; preds = %7, %1, %_ZNKSt8_Rb_treeIN5ZXing3ECIESt4pairIKS1_NS0_12CharacterSetEESt10_Select1stIS5_ESt4lessIS1_ESaIS5_EE14_M_lower_boundEPKSt13_Rb_tree_nodeIS5_EPKSt18_Rb_tree_node_baseRS3_.exit.i.i, %11
  %14 = phi i8 [ %13, %11 ], [ 0, %_ZNKSt8_Rb_treeIN5ZXing3ECIESt4pairIKS1_NS0_12CharacterSetEESt10_Select1stIS5_ESt4lessIS1_ESaIS5_EE14_M_lower_boundEPKSt13_Rb_tree_nodeIS5_EPKSt18_Rb_tree_node_baseRS3_.exit.i.i ], [ 0, %1 ], [ 0, %7 ]
  ret i8 %14
}